; Function Attrs: mustprogress uwtable
define void @_ZN7testing4Test3RunEv(ptr noundef nonnull align 8 dereferenceable(16) %0) local_unnamed_addr #4 align 2 personality ptr @__gxx_personality_v0 {
  %2 = tail call noundef zeroext i1 @_ZN7testing4Test19HasSameFixtureClassEv()
  br i1 %2, label %3, label %42

3:                                                ; preds = %1
  %4 = load atomic i8, ptr @_ZGVZN7testing8UnitTest11GetInstanceEvE8instance acquire, align 8
  %5 = icmp eq i8 %4, 0
  br i1 %5, label %6, label %_ZN7testing8internal15GetUnitTestImplEv.exit, !prof !41

6:                                                ; preds = %3
  %7 = tail call i32 @__cxa_guard_acquire(ptr nonnull @_ZGVZN7testing8UnitTest11GetInstanceEvE8instance) #56
  %.not.i.i = icmp eq i32 %7, 0
  br i1 %.not.i.i, label %_ZN7testing8internal15GetUnitTestImplEv.exit, label %8

8:                                                ; preds = %6
  invoke void @_ZN7testing8UnitTestC1Ev(ptr noundef nonnull align 8 dereferenceable(72) @_ZZN7testing8UnitTest11GetInstanceEvE8instance)
          to label %9 unwind label %11

9:                                                ; preds = %8
  %10 = tail call i32 @__cxa_atexit(ptr nonnull @_ZN7testing8UnitTestD1Ev, ptr nonnull @_ZZN7testing8UnitTest11GetInstanceEvE8instance, ptr nonnull @__dso_handle) #56
  tail call void @__cxa_guard_release(ptr nonnull @_ZGVZN7testing8UnitTest11GetInstanceEvE8instance) #56
  br label %_ZN7testing8internal15GetUnitTestImplEv.exit

11:                                               ; preds = %8
  %12 = landingpad { ptr, i32 }
          cleanup
  tail call void @__cxa_guard_abort(ptr nonnull @_ZGVZN7testing8UnitTest11GetInstanceEvE8instance) #56
  resume { ptr, i32 } %12

_ZN7testing8internal15GetUnitTestImplEv.exit:     ; preds = %3, %6, %9
  %13 = load ptr, ptr getelementptr inbounds nuw (i8, ptr @_ZZN7testing8UnitTest11GetInstanceEvE8instance, i64 64), align 8, !tbaa !42
  %14 = getelementptr inbounds nuw i8, ptr %13, i64 424
  %15 = load ptr, ptr %14, align 8, !tbaa !80
  %16 = icmp eq ptr %15, null
  br i1 %16, label %17, label %_ZN7testing8internal15GetUnitTestImplEv.exit._ZN7testing8internal12UnitTestImpl21os_stack_trace_getterEv.exit_crit_edge

_ZN7testing8internal15GetUnitTestImplEv.exit._ZN7testing8internal12UnitTestImpl21os_stack_trace_getterEv.exit_crit_edge: ; preds = %_ZN7testing8internal15GetUnitTestImplEv.exit
  %.pre = load ptr, ptr %15, align 8, !tbaa !23
  br label %_ZN7testing8internal12UnitTestImpl21os_stack_trace_getterEv.exit

17:                                               ; preds = %_ZN7testing8internal15GetUnitTestImplEv.exit
  %18 = tail call noalias noundef nonnull dereferenceable(8) ptr @_Znwm(i64 noundef 8) #59
  store ptr getelementptr inbounds nuw inrange(-16, 32) (i8, ptr @_ZTVN7testing8internal18OsStackTraceGetterE, i64 16), ptr %18, align 8, !tbaa !23
  store ptr %18, ptr %14, align 8, !tbaa !80
  br label %_ZN7testing8internal12UnitTestImpl21os_stack_trace_getterEv.exit

_ZN7testing8internal12UnitTestImpl21os_stack_trace_getterEv.exit: ; preds = %_ZN7testing8internal15GetUnitTestImplEv.exit._ZN7testing8internal12UnitTestImpl21os_stack_trace_getterEv.exit_crit_edge, %17
  %19 = phi ptr [ getelementptr inbounds nuw inrange(-16, 32) (i8, ptr @_ZTVN7testing8internal18OsStackTraceGetterE, i64 16), %17 ], [ %.pre, %_ZN7testing8internal15GetUnitTestImplEv.exit._ZN7testing8internal12UnitTestImpl21os_stack_trace_getterEv.exit_crit_edge ]
  %20 = phi ptr [ %18, %17 ], [ %15, %_ZN7testing8internal15GetUnitTestImplEv.exit._ZN7testing8internal12UnitTestImpl21os_stack_trace_getterEv.exit_crit_edge ]
  %21 = getelementptr inbounds nuw i8, ptr %19, i64 24
  %22 = load ptr, ptr %21, align 8
  tail call void %22(ptr noundef nonnull align 8 dereferenceable(8) %20)
  tail call void @_ZN7testing8internal35HandleExceptionsInMethodIfSupportedINS_4TestEvEET0_PT_MS4_FS3_vEPKc(ptr noundef nonnull %0, i64 17, i64 0, ptr noundef nonnull @.str.120)
  %23 = tail call noundef zeroext i1 @_ZN7testing4Test15HasFatalFailureEv()
  br i1 %23, label %33, label %24

24:                                               ; preds = %_ZN7testing8internal12UnitTestImpl21os_stack_trace_getterEv.exit
  %25 = load ptr, ptr %14, align 8, !tbaa !80
  %26 = icmp eq ptr %25, null
  br i1 %26, label %27, label %._ZN7testing8internal12UnitTestImpl21os_stack_trace_getterEv.exit8_crit_edge

._ZN7testing8internal12UnitTestImpl21os_stack_trace_getterEv.exit8_crit_edge: ; preds = %24
  %.pre10 = load ptr, ptr %25, align 8, !tbaa !23
  br label %_ZN7testing8internal12UnitTestImpl21os_stack_trace_getterEv.exit8

27:                                               ; preds = %24
  %28 = tail call noalias noundef nonnull dereferenceable(8) ptr @_Znwm(i64 noundef 8) #59
  store ptr getelementptr inbounds nuw inrange(-16, 32) (i8, ptr @_ZTVN7testing8internal18OsStackTraceGetterE, i64 16), ptr %28, align 8, !tbaa !23
  store ptr %28, ptr %14, align 8, !tbaa !80
  br label %_ZN7testing8internal12UnitTestImpl21os_stack_trace_getterEv.exit8

_ZN7testing8internal12UnitTestImpl21os_stack_trace_getterEv.exit8: ; preds = %._ZN7testing8internal12UnitTestImpl21os_stack_trace_getterEv.exit8_crit_edge, %27
  %29 = phi ptr [ getelementptr inbounds nuw inrange(-16, 32) (i8, ptr @_ZTVN7testing8internal18OsStackTraceGetterE, i64 16), %27 ], [ %.pre10, %._ZN7testing8internal12UnitTestImpl21os_stack_trace_getterEv.exit8_crit_edge ]
  %30 = phi ptr [ %28, %27 ], [ %25, %._ZN7testing8internal12UnitTestImpl21os_stack_trace_getterEv.exit8_crit_edge ]
  %31 = getelementptr inbounds nuw i8, ptr %29, i64 24
  %32 = load ptr, ptr %31, align 8
  tail call void %32(ptr noundef nonnull align 8 dereferenceable(8) %30)
  tail call void @_ZN7testing8internal35HandleExceptionsInMethodIfSupportedINS_4TestEvEET0_PT_MS4_FS3_vEPKc(ptr noundef nonnull %0, i64 33, i64 0, ptr noundef nonnull @.str.121)
  br label %33

33:                                               ; preds = %_ZN7testing8internal12UnitTestImpl21os_stack_trace_getterEv.exit8, %_ZN7testing8internal12UnitTestImpl21os_stack_trace_getterEv.exit
  %34 = load ptr, ptr %14, align 8, !tbaa !80
  %35 = icmp eq ptr %34, null
  br i1 %35, label %36, label %._ZN7testing8internal12UnitTestImpl21os_stack_trace_getterEv.exit9_crit_edge

._ZN7testing8internal12UnitTestImpl21os_stack_trace_getterEv.exit9_crit_edge: ; preds = %33
  %.pre11 = load ptr, ptr %34, align 8, !tbaa !23
  br label %_ZN7testing8internal12UnitTestImpl21os_stack_trace_getterEv.exit9

36:                                               ; preds = %33
  %37 = tail call noalias noundef nonnull dereferenceable(8) ptr @_Znwm(i64 noundef 8) #59
  store ptr getelementptr inbounds nuw inrange(-16, 32) (i8, ptr @_ZTVN7testing8internal18OsStackTraceGetterE, i64 16), ptr %37, align 8, !tbaa !23
  store ptr %37, ptr %14, align 8, !tbaa !80
  br label %_ZN7testing8internal12UnitTestImpl21os_stack_trace_getterEv.exit9

_ZN7testing8internal12UnitTestImpl21os_stack_trace_getterEv.exit9: ; preds = %._ZN7testing8internal12UnitTestImpl21os_stack_trace_getterEv.exit9_crit_edge, %36
  %38 = phi ptr [ getelementptr inbounds nuw inrange(-16, 32) (i8, ptr @_ZTVN7testing8internal18OsStackTraceGetterE, i64 16), %36 ], [ %.pre11, %._ZN7testing8internal12UnitTestImpl21os_stack_trace_getterEv.exit9_crit_edge ]
  %39 = phi ptr [ %37, %36 ], [ %34, %._ZN7testing8internal12UnitTestImpl21os_stack_trace_getterEv.exit9_crit_edge ]
  %40 = getelementptr inbounds nuw i8, ptr %38, i64 24
  %41 = load ptr, ptr %40, align 8
  tail call void %41(ptr noundef nonnull align 8 dereferenceable(8) %39)
  tail call void @_ZN7testing8internal35HandleExceptionsInMethodIfSupportedINS_4TestEvEET0_PT_MS4_FS3_vEPKc(ptr noundef nonnull %0, i64 25, i64 0, ptr noundef nonnull @.str.122)
  br label %42

42:                                               ; preds = %1, %_ZN7testing8internal12UnitTestImpl21os_stack_trace_getterEv.exit9
  ret void
}